target datalayout = "e-m:e-p270:32:32-p271:32:32-p272:64:64-i64:64-i128:128-f80:128-n8:16:32:64-S128"
target triple = "x86_64-pc-linux-gnu"

%struct.SurfaceDataRasInfo = type { %struct.SurfaceDataBounds, ptr, i32, i32, i32, i32, ptr, ptr, ptr, ptr, ptr, ptr, i32, %union.anon.0 }
%struct.SurfaceDataBounds = type { i32, i32, i32, i32 }
%union.anon.0 = type { ptr, [56 x i8] }

; Function Attrs: nounwind uwtable
define hidden void @IntArgbBmToUshort555RgbScaleXparOver(ptr noundef %0, ptr noundef %1, i32 noundef %2, i32 noundef %3, i32 noundef %4, i32 noundef %5, i32 noundef %6, i32 noundef %7, i32 noundef %8, ptr noundef %9, ptr noundef %10, ptr noundef %11, ptr noundef %12) #1 {
  %14 = alloca ptr, align 8
  %15 = alloca ptr, align 8
  %16 = alloca i32, align 4
  %17 = alloca i32, align 4
  %18 = alloca i32, align 4
  %19 = alloca i32, align 4
  %20 = alloca i32, align 4
  %21 = alloca i32, align 4
  %22 = alloca i32, align 4
  %23 = alloca ptr, align 8
  %24 = alloca ptr, align 8
  %25 = alloca ptr, align 8
  %26 = alloca ptr, align 8
  %27 = alloca ptr, align 8
  %28 = alloca ptr, align 8
  %29 = alloca i32, align 4
  %30 = alloca i32, align 4
  %31 = alloca i32, align 4
  %32 = alloca i32, align 4
  %33 = alloca i32, align 4
  %34 = alloca i32, align 4
  %35 = alloca i32, align 4
  store ptr %0, ptr %14, align 8
  store ptr %1, ptr %15, align 8
  store i32 %2, ptr %16, align 4
  store i32 %3, ptr %17, align 4
  store i32 %4, ptr %18, align 4
  store i32 %5, ptr %19, align 4
  store i32 %6, ptr %20, align 4
  store i32 %7, ptr %21, align 4
  store i32 %8, ptr %22, align 4
  store ptr %9, ptr %23, align 8
  store ptr %10, ptr %24, align 8
  store ptr %11, ptr %25, align 8
  store ptr %12, ptr %26, align 8
  br label %36

36:                                               ; preds = %13
  %37 = load ptr, ptr %15, align 8
  store ptr %37, ptr %28, align 8
  %38 = load ptr, ptr %23, align 8
  %39 = getelementptr inbounds %struct.SurfaceDataRasInfo, ptr %38, i32 0, i32 4
  %40 = load i32, ptr %39, align 8
  store i32 %40, ptr %29, align 4
  %41 = load ptr, ptr %24, align 8
  %42 = getelementptr inbounds %struct.SurfaceDataRasInfo, ptr %41, i32 0, i32 4
  %43 = load i32, ptr %42, align 8
  store i32 %43, ptr %30, align 4
  %44 = load i32, ptr %16, align 4
  %45 = mul i32 %44, 2
  %46 = load i32, ptr %30, align 4
  %47 = sub i32 %46, %45
  store i32 %47, ptr %30, align 4
  br label %48

48:                                               ; preds = %114, %36
  %49 = load i32, ptr %16, align 4
  store i32 %49, ptr %31, align 4
  %50 = load i32, ptr %18, align 4
  store i32 %50, ptr %32, align 4
  %51 = load ptr, ptr %14, align 8
  %52 = ptrtoint ptr %51 to i64
  %53 = load i32, ptr %19, align 4
  %54 = load i32, ptr %22, align 4
  %55 = ashr i32 %53, %54
  %56 = sext i32 %55 to i64
  %57 = load i32, ptr %29, align 4
  %58 = sext i32 %57 to i64
  %59 = mul nsw i64 %56, %58
  %60 = add nsw i64 %52, %59
  %61 = inttoptr i64 %60 to ptr
  store ptr %61, ptr %27, align 8
  br label %62

62:                                               ; preds = %100, %48
  %63 = load i32, ptr %32, align 4
  %64 = load i32, ptr %22, align 4
  %65 = ashr i32 %63, %64
  store i32 %65, ptr %33, align 4
  br label %66

66:                                               ; preds = %62
  %67 = load ptr, ptr %27, align 8
  %68 = load i32, ptr %33, align 4
  %69 = sext i32 %68 to i64
  %70 = getelementptr inbounds i32, ptr %67, i64 %69
  %71 = load i32, ptr %70, align 4
  store i32 %71, ptr %34, align 4
  %72 = load i32, ptr %34, align 4
  %73 = ashr i32 %72, 24
  %74 = icmp eq i32 %73, 0
  br i1 %74, label %91, label %75

75:                                               ; preds = %66
  %76 = load i32, ptr %34, align 4
  store i32 %76, ptr %35, align 4
  %77 = load i32, ptr %35, align 4
  %78 = ashr i32 %77, 9
  %79 = and i32 %78, 31744
  %80 = load i32, ptr %35, align 4
  %81 = ashr i32 %80, 6
  %82 = and i32 %81, 992
  %83 = or i32 %79, %82
  %84 = load i32, ptr %35, align 4
  %85 = ashr i32 %84, 3
  %86 = and i32 %85, 31
  %87 = or i32 %83, %86
  %88 = trunc i32 %87 to i16
  %89 = load ptr, ptr %28, align 8
  %90 = getelementptr inbounds i16, ptr %89, i64 0
  store i16 %88, ptr %90, align 2
  br label %91

91:                                               ; preds = %75, %66
  br label %92

92:                                               ; preds = %91
  %93 = load ptr, ptr %28, align 8
  %94 = ptrtoint ptr %93 to i64
  %95 = add nsw i64 %94, 2
  %96 = inttoptr i64 %95 to ptr
  store ptr %96, ptr %28, align 8
  %97 = load i32, ptr %20, align 4
  %98 = load i32, ptr %32, align 4
  %99 = add nsw i32 %98, %97
  store i32 %99, ptr %32, align 4
  br label %100

100:                                              ; preds = %92
  %101 = load i32, ptr %31, align 4
  %102 = add i32 %101, -1
  store i32 %102, ptr %31, align 4
  %103 = icmp ugt i32 %102, 0
  br i1 %103, label %62, label %104, !llvm.loop !39

104:                                              ; preds = %100
  %105 = load ptr, ptr %28, align 8
  %106 = ptrtoint ptr %105 to i64
  %107 = load i32, ptr %30, align 4
  %108 = sext i32 %107 to i64
  %109 = add nsw i64 %106, %108
  %110 = inttoptr i64 %109 to ptr
  store ptr %110, ptr %28, align 8
  %111 = load i32, ptr %21, align 4
  %112 = load i32, ptr %19, align 4
  %113 = add nsw i32 %112, %111
  store i32 %113, ptr %19, align 4
  br label %114

114:                                              ; preds = %104
  %115 = load i32, ptr %17, align 4
  %116 = add i32 %115, -1
  store i32 %116, ptr %17, align 4
  %117 = icmp ugt i32 %116, 0
  br i1 %117, label %48, label %118, !llvm.loop !40

118:                                              ; preds = %114
  br label %119

119:                                              ; preds = %118
  ret void
}