; Function Attrs: nofree norecurse nosync nounwind memory(readwrite, inaccessiblemem: none) uwtable
define hidden void @IntArgbBmToUshort555RgbScaleXparOver(ptr noundef %0, ptr noundef %1, i32 noundef %2, i32 noundef %3, i32 noundef %4, i32 noundef %5, i32 noundef %6, i32 noundef %7, i32 noundef %8, ptr nocapture noundef readonly %9, ptr nocapture noundef readonly %10, ptr nocapture readnone %11, ptr nocapture readnone %12) #1 {
  %14 = getelementptr inbounds i8, ptr %9, i64 32
  %15 = load i32, ptr %14, align 8
  %16 = getelementptr inbounds i8, ptr %10, i64 32
  %17 = load i32, ptr %16, align 8
  %18 = shl i32 %2, 1
  %19 = sub i32 %17, %18
  %20 = sext i32 %19 to i64
  %21 = ptrtoint ptr %0 to i64
  %22 = sext i32 %15 to i64
  br label %23

23:                                               ; preds = %51, %13
  %.030 = phi ptr [ %1, %13 ], [ %53, %51 ]
  %.029 = phi i32 [ %5, %13 ], [ %54, %51 ]
  %.0 = phi i32 [ %3, %13 ], [ %55, %51 ]
  %24 = ashr i32 %.029, %8
  %25 = sext i32 %24 to i64
  %26 = mul nsw i64 %25, %22
  %27 = add nsw i64 %26, %21
  %28 = inttoptr i64 %27 to ptr
  br label %29

29:                                               ; preds = %45, %23
  %.032 = phi i32 [ %2, %23 ], [ %50, %45 ]
  %.031 = phi i32 [ %4, %23 ], [ %49, %45 ]
  %.1 = phi ptr [ %.030, %23 ], [ %48, %45 ]
  %30 = ashr i32 %.031, %8
  %31 = sext i32 %30 to i64
  %32 = getelementptr inbounds i32, ptr %28, i64 %31
  %33 = load i32, ptr %32, align 4
  %34 = icmp ult i32 %33, 16777216
  br i1 %34, label %45, label %35

35:                                               ; preds = %29
  %36 = lshr i32 %33, 9
  %37 = and i32 %36, 31744
  %38 = lshr i32 %33, 6
  %39 = and i32 %38, 992
  %40 = or disjoint i32 %37, %39
  %41 = lshr i32 %33, 3
  %42 = and i32 %41, 31
  %43 = or disjoint i32 %40, %42
  %44 = trunc nuw nsw i32 %43 to i16
  store i16 %44, ptr %.1, align 2
  br label %45

45:                                               ; preds = %29, %35
  %46 = ptrtoint ptr %.1 to i64
  %47 = add nsw i64 %46, 2
  %48 = inttoptr i64 %47 to ptr
  %49 = add nsw i32 %.031, %6
  %50 = add i32 %.032, -1
  %.not = icmp eq i32 %50, 0
  br i1 %.not, label %51, label %29, !llvm.loop !35

51:                                               ; preds = %45
  %52 = add nsw i64 %47, %20
  %53 = inttoptr i64 %52 to ptr
  %54 = add nsw i32 %.029, %7
  %55 = add i32 %.0, -1
  %.not35 = icmp eq i32 %55, 0
  br i1 %.not35, label %56, label %23, !llvm.loop !36

56:                                               ; preds = %51
  ret void
}